target datalayout = "e-m:e-p270:32:32-p271:32:32-p272:64:64-i64:64-i128:128-f80:128-n8:16:32:64-S128"
target triple = "x86_64-pc-linux-gnu"

%struct.AVFilterContext = type { ptr, ptr, ptr, ptr, ptr, i32, ptr, ptr, i32, ptr, ptr, i32, i32, ptr, ptr, ptr, ptr, i32, ptr, i32, i32 }
%struct.HWUploadContext = type { ptr, ptr, ptr, ptr, ptr }

@.str.11 = private unnamed_addr constant [62 x i8] c"A hardware device reference is required to upload frames to.\0A\00", align 1

; Function Attrs: nounwind uwtable
define internal i32 @hwupload_init(ptr noundef %0) #0 {
  %2 = alloca i32, align 4
  %3 = alloca ptr, align 8
  %4 = alloca ptr, align 8
  %5 = alloca i32, align 4
  %6 = alloca i32, align 4
  store ptr %0, ptr %3, align 8, !tbaa !4
  call void @llvm.lifetime.start.p0(i64 8, ptr %4) #5
  %7 = load ptr, ptr %3, align 8, !tbaa !4
  %8 = getelementptr inbounds nuw %struct.AVFilterContext, ptr %7, i32 0, i32 9
  %9 = load ptr, ptr %8, align 8, !tbaa !9
  store ptr %9, ptr %4, align 8, !tbaa !22
  call void @llvm.lifetime.start.p0(i64 4, ptr %5) #5
  %10 = load ptr, ptr %3, align 8, !tbaa !4
  %11 = getelementptr inbounds nuw %struct.AVFilterContext, ptr %10, i32 0, i32 18
  %12 = load ptr, ptr %11, align 8, !tbaa !24
  %13 = icmp ne ptr %12, null
  br i1 %13, label %16, label %14

14:                                               ; preds = %1
  %15 = load ptr, ptr %4, align 8, !tbaa !22
  call void (ptr, i32, ptr, ...) @av_log(ptr noundef %15, i32 noundef 16, ptr noundef @.str.11)
  store i32 -22, ptr %2, align 4
  store i32 1, ptr %6, align 4
  br label %51

16:                                               ; preds = %1
  %17 = load ptr, ptr %4, align 8, !tbaa !22
  %18 = getelementptr inbounds nuw %struct.HWUploadContext, ptr %17, i32 0, i32 4
  %19 = load ptr, ptr %18, align 8, !tbaa !25
  %20 = icmp ne ptr %19, null
  br i1 %20, label %21, label %37

21:                                               ; preds = %16
  %22 = load ptr, ptr %4, align 8, !tbaa !22
  %23 = getelementptr inbounds nuw %struct.HWUploadContext, ptr %22, i32 0, i32 1
  %24 = load ptr, ptr %4, align 8, !tbaa !22
  %25 = getelementptr inbounds nuw %struct.HWUploadContext, ptr %24, i32 0, i32 4
  %26 = load ptr, ptr %25, align 8, !tbaa !25
  %27 = call i32 @av_hwdevice_find_type_by_name(ptr noundef %26)
  %28 = load ptr, ptr %3, align 8, !tbaa !4
  %29 = getelementptr inbounds nuw %struct.AVFilterContext, ptr %28, i32 0, i32 18
  %30 = load ptr, ptr %29, align 8, !tbaa !24
  %31 = call i32 @av_hwdevice_ctx_create_derived(ptr noundef %23, i32 noundef %27, ptr noundef %30, i32 noundef 0)
  store i32 %31, ptr %5, align 4, !tbaa !28
  %32 = load i32, ptr %5, align 4, !tbaa !28
  %33 = icmp slt i32 %32, 0
  br i1 %33, label %34, label %36

34:                                               ; preds = %21
  %35 = load i32, ptr %5, align 4, !tbaa !28
  store i32 %35, ptr %2, align 4
  store i32 1, ptr %6, align 4
  br label %51

36:                                               ; preds = %21
  br label %50

37:                                               ; preds = %16
  %38 = load ptr, ptr %3, align 8, !tbaa !4
  %39 = getelementptr inbounds nuw %struct.AVFilterContext, ptr %38, i32 0, i32 18
  %40 = load ptr, ptr %39, align 8, !tbaa !24
  %41 = call ptr @av_buffer_ref(ptr noundef %40)
  %42 = load ptr, ptr %4, align 8, !tbaa !22
  %43 = getelementptr inbounds nuw %struct.HWUploadContext, ptr %42, i32 0, i32 1
  store ptr %41, ptr %43, align 8, !tbaa !29
  %44 = load ptr, ptr %4, align 8, !tbaa !22
  %45 = getelementptr inbounds nuw %struct.HWUploadContext, ptr %44, i32 0, i32 1
  %46 = load ptr, ptr %45, align 8, !tbaa !29
  %47 = icmp ne ptr %46, null
  br i1 %47, label %49, label %48

48:                                               ; preds = %37
  store i32 -12, ptr %2, align 4
  store i32 1, ptr %6, align 4
  br label %51

49:                                               ; preds = %37
  br label %50

50:                                               ; preds = %49, %36
  store i32 0, ptr %2, align 4
  store i32 1, ptr %6, align 4
  br label %51

51:                                               ; preds = %50, %48, %34, %14
  call void @llvm.lifetime.end.p0(i64 4, ptr %5) #5
  call void @llvm.lifetime.end.p0(i64 8, ptr %4) #5
  %52 = load i32, ptr %2, align 4
  ret i32 %52
}