; Function Attrs: nounwind uwtable
define internal range(i32 -2147483648, 1) i32 @hwupload_init(ptr noundef readonly captures(none) %0) #0 {
  %2 = getelementptr inbounds nuw i8, ptr %0, i64 72
  %3 = load ptr, ptr %2, align 8, !tbaa !4
  %4 = getelementptr inbounds nuw i8, ptr %0, i64 136
  %5 = load ptr, ptr %4, align 8, !tbaa !20
  %.not = icmp eq ptr %5, null
  br i1 %.not, label %6, label %7

6:                                                ; preds = %1
  tail call void (ptr, i32, ptr, ...) @av_log(ptr noundef %3, i32 noundef 16, ptr noundef nonnull @.str.11) #5
  br label %20

7:                                                ; preds = %1
  %8 = getelementptr inbounds nuw i8, ptr %3, i64 32
  %9 = load ptr, ptr %8, align 8, !tbaa !21
  %.not15 = icmp eq ptr %9, null
  br i1 %.not15, label %16, label %10

10:                                               ; preds = %7
  %11 = getelementptr inbounds nuw i8, ptr %3, i64 8
  %12 = tail call i32 @av_hwdevice_find_type_by_name(ptr noundef nonnull %9) #5
  %13 = load ptr, ptr %4, align 8, !tbaa !20
  %14 = tail call i32 @av_hwdevice_ctx_create_derived(ptr noundef nonnull %11, i32 noundef %12, ptr noundef %13, i32 noundef 0) #5
  %15 = icmp slt i32 %14, 0
  br i1 %15, label %20, label %19

16:                                               ; preds = %7
  %17 = tail call ptr @av_buffer_ref(ptr noundef nonnull %5) #5
  %18 = getelementptr inbounds nuw i8, ptr %3, i64 8
  store ptr %17, ptr %18, align 8, !tbaa !24
  %.not16 = icmp eq ptr %17, null
  br i1 %.not16, label %20, label %19

19:                                               ; preds = %16, %10
  br label %20

20:                                               ; preds = %16, %10, %19, %6
  %.0 = phi i32 [ 0, %19 ], [ -22, %6 ], [ %14, %10 ], [ -12, %16 ]
  ret i32 %.0
}